ARM GAS  C:\Users\Martina\AppData\Local\Temp\ccJc4yJc.s 			page 1


   1              		.syntax unified
   2              		.cpu cortex-m3
   3              		.fpu softvfp
   4              		.eabi_attribute 20, 1
   5              		.eabi_attribute 21, 1
   6              		.eabi_attribute 23, 3
   7              		.eabi_attribute 24, 1
   8              		.eabi_attribute 25, 1
   9              		.eabi_attribute 26, 1
  10              		.eabi_attribute 30, 1
  11              		.eabi_attribute 34, 1
  12              		.eabi_attribute 18, 4
  13              		.thumb
  14              		.syntax unified
  15              		.file	"main.c"
  16              		.text
  17              	.Ltext0:
  18              		.cfi_sections	.debug_frame
  19              		.section	.text.main,"ax",%progbits
  20              		.align	2
  21              		.global	main
  22              		.thumb
  23              		.thumb_func
  24              		.type	main, %function
  25              	main:
  26              	.LFB64:
  27              		.file 1 "main.c"
   1:main.c        **** /* ========================================
   2:main.c        ****  *
   3:main.c        ****  * Legge sempre lo stesso valore cioè il primo
   4:main.c        ****  * ad ogni overrun
   5:main.c        ****  *
   6:main.c        ****  * ========================================
   7:main.c        **** */
   8:main.c        **** #include <stdio.h>
   9:main.c        **** #include "project.h"
  10:main.c        **** #include "../src_shared/I2C_Interface.h"
  11:main.c        **** #include "../src_shared/LIS3DH.h"
  12:main.c        **** 
  13:main.c        **** int main(void)
  14:main.c        **** {
  28              		.loc 1 14 0
  29              		.cfi_startproc
  30              		@ args = 0, pretend = 0, frame = 232
  31              		@ frame_needed = 0, uses_anonymous_args = 0
  32 0000 70B5     		push	{r4, r5, r6, lr}
  33              		.cfi_def_cfa_offset 16
  34              		.cfi_offset 4, -16
  35              		.cfi_offset 5, -12
  36              		.cfi_offset 6, -8
  37              		.cfi_offset 14, -4
  38 0002 BCB0     		sub	sp, sp, #240
  39              		.cfi_def_cfa_offset 256
  15:main.c        ****     CyGlobalIntEnable; /* Enable global interrupts. */
  40              		.loc 1 15 0
  41              		.syntax unified
  42              	@ 15 "main.c" 1
ARM GAS  C:\Users\Martina\AppData\Local\Temp\ccJc4yJc.s 			page 2


  43 0004 62B6     		CPSIE   i
  44              	@ 0 "" 2
  16:main.c        **** 
  17:main.c        ****     /* Place your initialization/startup code here (e.g. MyInst_Start()) */
  18:main.c        ****     I2C_Peripheral_Start();
  45              		.loc 1 18 0
  46              		.thumb
  47              		.syntax unified
  48 0006 FFF7FEFF 		bl	I2C_Peripheral_Start
  49              	.LVL0:
  19:main.c        ****     UART_1_Start();
  50              		.loc 1 19 0
  51 000a FFF7FEFF 		bl	UART_1_Start
  52              	.LVL1:
  20:main.c        ****     
  21:main.c        ****     CyDelay(5); //"The boot procedure is complete about 5 ms after device power-up."
  53              		.loc 1 21 0
  54 000e 0520     		movs	r0, #5
  55 0010 FFF7FEFF 		bl	CyDelay
  56              	.LVL2:
  22:main.c        ****     
  23:main.c        **** 
  24:main.c        ****     char message[32];
  25:main.c        ****     uint8_t control_reg;
  26:main.c        ****     
  27:main.c        **** 
  28:main.c        ****     
  29:main.c        ****     //selecting FIFO mode   
  30:main.c        ****     control_reg = 0x40;
  31:main.c        ****     ErrorCode error = I2C_Peripheral_WriteRegister(LIS3DH_DEVICE_ADDRESS,
  57              		.loc 1 31 0
  58 0014 4022     		movs	r2, #64
  59 0016 2E21     		movs	r1, #46
  60 0018 1820     		movs	r0, #24
  61 001a FFF7FEFF 		bl	I2C_Peripheral_WriteRegister
  62              	.LVL3:
  32:main.c        ****                                              LIS3DH_FIFO_CTRL_REG,
  33:main.c        ****                                              control_reg);
  34:main.c        ****       //enable FIFO buffer FIFO_EN=1
  35:main.c        ****     control_reg = 0x40;
  36:main.c        ****     error = I2C_Peripheral_WriteRegister(LIS3DH_DEVICE_ADDRESS,
  63              		.loc 1 36 0
  64 001e 4022     		movs	r2, #64
  65 0020 2421     		movs	r1, #36
  66 0022 1820     		movs	r0, #24
  67 0024 FFF7FEFF 		bl	I2C_Peripheral_WriteRegister
  68              	.LVL4:
  37:main.c        ****                                              LIS3DH_CTRL_REG5,
  38:main.c        ****                                              control_reg);
  39:main.c        ****     if (error == NO_ERROR)
  69              		.loc 1 39 0
  70 0028 48B9     		cbnz	r0, .L2
  40:main.c        ****     {
  41:main.c        ****         sprintf(message, "FIFO_MODE enabled\r\n");
  71              		.loc 1 41 0
  72 002a 34AC     		add	r4, sp, #208
  73 002c 5C4D     		ldr	r5, .L15
ARM GAS  C:\Users\Martina\AppData\Local\Temp\ccJc4yJc.s 			page 3


  74 002e 0FCD     		ldmia	r5!, {r0, r1, r2, r3}
  75              	.LVL5:
  76 0030 0FC4     		stmia	r4!, {r0, r1, r2, r3}
  77 0032 2B68     		ldr	r3, [r5]
  78 0034 2360     		str	r3, [r4]
  42:main.c        ****         UART_1_PutString(message);
  79              		.loc 1 42 0
  80 0036 34A8     		add	r0, sp, #208
  81 0038 FFF7FEFF 		bl	UART_1_PutString
  82              	.LVL6:
  83 003c 02E0     		b	.L3
  84              	.LVL7:
  85              	.L2:
  43:main.c        ****     }
  44:main.c        ****     else
  45:main.c        ****     {
  46:main.c        ****         UART_1_PutString("\r\nError occured during I2C comm to set control register 1\r\n");
  86              		.loc 1 46 0
  87 003e 5948     		ldr	r0, .L15+4
  88              	.LVL8:
  89 0040 FFF7FEFF 		bl	UART_1_PutString
  90              	.LVL9:
  91              	.L3:
  47:main.c        ****     }
  48:main.c        ****     //check if CTRL_REG5 is written correctly
  49:main.c        ****     uint8_t check;
  50:main.c        ****     error = I2C_Peripheral_ReadRegister(LIS3DH_DEVICE_ADDRESS, 
  92              		.loc 1 50 0
  93 0044 0DF1CF02 		add	r2, sp, #207
  94 0048 2421     		movs	r1, #36
  95 004a 1820     		movs	r0, #24
  96 004c FFF7FEFF 		bl	I2C_Peripheral_ReadRegister
  97              	.LVL10:
  51:main.c        ****                                         LIS3DH_CTRL_REG5,
  52:main.c        ****                                         &check);
  53:main.c        ****     if( error == NO_ERROR ) {
  98              		.loc 1 53 0
  99 0050 50B9     		cbnz	r0, .L4
  54:main.c        ****         sprintf(message, "CTRL_REG5 register value: 0x%02X [Expected value: 0x%02X]\r\n", check, co
 100              		.loc 1 54 0
 101 0052 4023     		movs	r3, #64
 102 0054 9DF8CF20 		ldrb	r2, [sp, #207]	@ zero_extendqisi2
 103 0058 5349     		ldr	r1, .L15+8
 104 005a 34A8     		add	r0, sp, #208
 105              	.LVL11:
 106 005c FFF7FEFF 		bl	sprintf
 107              	.LVL12:
  55:main.c        ****         UART_1_PutString(message);
 108              		.loc 1 55 0
 109 0060 34A8     		add	r0, sp, #208
 110 0062 FFF7FEFF 		bl	UART_1_PutString
 111              	.LVL13:
 112 0066 02E0     		b	.L5
 113              	.LVL14:
 114              	.L4:
  56:main.c        ****     }
  57:main.c        ****     else {
ARM GAS  C:\Users\Martina\AppData\Local\Temp\ccJc4yJc.s 			page 4


  58:main.c        ****         UART_1_PutString("I2C error while reading LIS3DH_WHO_AM_I_REG_ADDR\r\n");
 115              		.loc 1 58 0
 116 0068 5048     		ldr	r0, .L15+12
 117              	.LVL15:
 118 006a FFF7FEFF 		bl	UART_1_PutString
 119              	.LVL16:
 120              	.L5:
  59:main.c        ****     }
  60:main.c        ****         
  61:main.c        **** 
  62:main.c        ****     //select CTRL_REG1 activate High Power Mode 10 Hz and enable axis
  63:main.c        ****     control_reg= 0x27;
  64:main.c        ****     error = I2C_Peripheral_WriteRegister(LIS3DH_DEVICE_ADDRESS,
 121              		.loc 1 64 0
 122 006e 2722     		movs	r2, #39
 123 0070 2021     		movs	r1, #32
 124 0072 1820     		movs	r0, #24
 125 0074 FFF7FEFF 		bl	I2C_Peripheral_WriteRegister
 126              	.LVL17:
  65:main.c        ****                                         LIS3DH_CTRL_REG1,
  66:main.c        ****                                         control_reg);
  67:main.c        ****     //reading CTRL_REG1
  68:main.c        ****     uint8_t reg1;
  69:main.c        ****     error = I2C_Peripheral_ReadRegister(LIS3DH_DEVICE_ADDRESS,
 127              		.loc 1 69 0
 128 0078 0DF1CE02 		add	r2, sp, #206
 129 007c 2021     		movs	r1, #32
 130 007e 1820     		movs	r0, #24
 131 0080 FFF7FEFF 		bl	I2C_Peripheral_ReadRegister
 132              	.LVL18:
  70:main.c        ****                                         LIS3DH_CTRL_REG1,
  71:main.c        ****                                         &reg1);
  72:main.c        ****     if( error == NO_ERROR ) {
 133              		.loc 1 72 0
 134 0084 40B9     		cbnz	r0, .L6
  73:main.c        ****         sprintf(message, "Valore CTRL_REG1 0x%02X\r\n", reg1);
 135              		.loc 1 73 0
 136 0086 9DF8CE20 		ldrb	r2, [sp, #206]	@ zero_extendqisi2
 137 008a 4949     		ldr	r1, .L15+16
 138 008c 34A8     		add	r0, sp, #208
 139              	.LVL19:
 140 008e FFF7FEFF 		bl	sprintf
 141              	.LVL20:
  74:main.c        ****         UART_1_PutString(message);
 142              		.loc 1 74 0
 143 0092 34A8     		add	r0, sp, #208
 144 0094 FFF7FEFF 		bl	UART_1_PutString
 145              	.LVL21:
 146              	.L6:
  75:main.c        ****         }
  76:main.c        ****  
  77:main.c        ****  
  78:main.c        ****     //set full scale +/-2g (no change from default)    
  79:main.c        ****     control_reg = 0x00;
  80:main.c        ****     error = I2C_Peripheral_WriteRegister(LIS3DH_DEVICE_ADDRESS,
 147              		.loc 1 80 0
 148 0098 0022     		movs	r2, #0
ARM GAS  C:\Users\Martina\AppData\Local\Temp\ccJc4yJc.s 			page 5


 149 009a 2321     		movs	r1, #35
 150 009c 1820     		movs	r0, #24
 151 009e FFF7FEFF 		bl	I2C_Peripheral_WriteRegister
 152              	.LVL22:
  81:main.c        ****                                          LIS3DH_CTRL_REG4,
  82:main.c        ****                                          control_reg);
  83:main.c        ****        
  84:main.c        ****     //enable interrupt on pin INT1 --> CTRL_REG3, I1_OVERRUN=1
  85:main.c        **** //    control_reg = 0x02;
  86:main.c        **** //    error = I2C_Peripheral_WriteRegister(LIS3DH_DEVICE_ADDRESS,
  87:main.c        **** //                                         LIS3DH_CTRL_REG3,
  88:main.c        **** //                                         control_reg);
  89:main.c        **** //     
  90:main.c        ****         
  91:main.c        ****         
  92:main.c        **** //    /*READ DATI*/
  93:main.c        ****     
  94:main.c        ****     uint8_t x_data[2];
  95:main.c        ****     int out_x;
  96:main.c        ****     float data_x;
  97:main.c        ****     
  98:main.c        ****     uint8_t y_data[2];
  99:main.c        ****     int out_y;
 100:main.c        ****     float data_y;
 101:main.c        **** 
 102:main.c        ****     uint8_t z_data[2];
 103:main.c        ****     int out_z;
 104:main.c        ****     float data_z;
 105:main.c        **** 
 106:main.c        ****     uint8_t address;
 107:main.c        ****     uint8_t lis_data[192];
 108:main.c        ****     uint8_t overrun=0;
 153              		.loc 1 108 0
 154 00a2 0025     		movs	r5, #0
 155 00a4 8DF80B50 		strb	r5, [sp, #11]
 156              	.LVL23:
 109:main.c        ****     uint8_t accelerazioni=0;
 110:main.c        ****     uint8_t acc[192];
 111:main.c        ****     uint8_t remain=0, empty=0;
 157              		.loc 1 111 0
 158 00a8 8DF80A50 		strb	r5, [sp, #10]
 159 00ac 8DF80950 		strb	r5, [sp, #9]
 160              	.LVL24:
 161              	.L13:
 112:main.c        ****     uint8_t i=0, flag_dati =0;
 113:main.c        **** //    error = I2C_Peripheral_ReadRegister(LIS3DH_DEVICE_ADDRESS,
 114:main.c        **** //                                        LIS3DH_CTRL_REG4,
 115:main.c        **** //                                        &address);
 116:main.c        **** //    if (error == NO_ERROR)
 117:main.c        **** //        {
 118:main.c        **** //            sprintf(message, "\r\nIl registro 0x%02X\r\n", address);
 119:main.c        **** //            UART_1_PutString(message);
 120:main.c        **** //        }
 121:main.c        ****     
 122:main.c        ****     
 123:main.c        ****     /*FINE READ DATI*/
 124:main.c        **** //        
ARM GAS  C:\Users\Martina\AppData\Local\Temp\ccJc4yJc.s 			page 6


 125:main.c        ****    for(;;)
 126:main.c        ****     {
 127:main.c        **** //        /* Place your application code here. */
 128:main.c        ****     
 129:main.c        **** //    //reset fifo: enable bypass mode
 130:main.c        **** //    control_reg = 0x00;
 131:main.c        **** //    error = I2C_Peripheral_WriteRegister(LIS3DH_DEVICE_ADDRESS,
 132:main.c        **** //                                             LIS3DH_FIFO_CTRL_REG,
 133:main.c        **** //                                             control_reg);
 134:main.c        **** //        //check FIFO status: 0x20 if empty
 135:main.c        **** //    error = I2C_Peripheral_ReadRegister(LIS3DH_DEVICE_ADDRESS,
 136:main.c        **** //                                        FIFO_SRC_REG,
 137:main.c        **** //                                        &address);
 138:main.c        ****         //controllo overrun 
 139:main.c        ****         error = I2C_Peripheral_ReadRegister(LIS3DH_DEVICE_ADDRESS,
 162              		.loc 1 139 0
 163 00b0 0DF10B02 		add	r2, sp, #11
 164 00b4 2F21     		movs	r1, #47
 165 00b6 1820     		movs	r0, #24
 166 00b8 FFF7FEFF 		bl	I2C_Peripheral_ReadRegister
 167              	.LVL25:
 140:main.c        ****                                         LIS3DH_FIFO_SRC_REG,
 141:main.c        ****                                         &overrun);
 142:main.c        ****        
 143:main.c        ****         //sprintf(message, "\r\nOverrun:  %d\r\n", overrun&0x40);
 144:main.c        ****         //UART_1_PutString(message);
 145:main.c        ****         
 146:main.c        ****         /*LETTURA DATI AD OGNI OVERRUN*/
 147:main.c        ****         if((overrun&0x40)==0x40)
 168              		.loc 1 147 0
 169 00bc 9DF80B30 		ldrb	r3, [sp, #11]	@ zero_extendqisi2
 170 00c0 13F0400F 		tst	r3, #64
 171 00c4 35D0     		beq	.L7
 148:main.c        ****         {
 149:main.c        ****             error = I2C_Peripheral_ReadRegister(LIS3DH_DEVICE_ADDRESS,
 172              		.loc 1 149 0
 173 00c6 0DF10902 		add	r2, sp, #9
 174 00ca 2F21     		movs	r1, #47
 175 00cc 1820     		movs	r0, #24
 176 00ce FFF7FEFF 		bl	I2C_Peripheral_ReadRegister
 177              	.LVL26:
 150:main.c        ****                                     LIS3DH_FIFO_SRC_REG,
 151:main.c        ****                                     &empty);
 152:main.c        ****                            
 153:main.c        ****                 sprintf(message, "FIFO overrun");
 178              		.loc 1 153 0
 179 00d2 384B     		ldr	r3, .L15+20
 180 00d4 34AC     		add	r4, sp, #208
 181 00d6 0FCB     		ldmia	r3, {r0, r1, r2, r3}
 182 00d8 07C4     		stmia	r4!, {r0, r1, r2}
 183 00da 2370     		strb	r3, [r4]
 154:main.c        ****                 UART_1_PutString(message);     
 184              		.loc 1 154 0
 185 00dc 34A8     		add	r0, sp, #208
 186 00de FFF7FEFF 		bl	UART_1_PutString
 187              	.LVL27:
 155:main.c        ****               while(~empty&0x20)
ARM GAS  C:\Users\Martina\AppData\Local\Temp\ccJc4yJc.s 			page 7


 188              		.loc 1 155 0
 189 00e2 21E0     		b	.L8
 190              	.L10:
 156:main.c        ****                 {
 157:main.c        **** 
 158:main.c        ****             //reset fifo: enable bypass mode
 159:main.c        **** //                    control_reg = LIS3DH_FIFO_CTRL_REG&0x3F;
 160:main.c        **** //                    error = I2C_Peripheral_WriteRegister(LIS3DH_DEVICE_ADDRESS,
 161:main.c        **** //                                                             LIS3DH_FIFO_CTRL_REG,
 162:main.c        **** //                                                             control_reg);
 163:main.c        **** 
 164:main.c        **** 
 165:main.c        ****                     //x 
 166:main.c        ****                     error = I2C_Peripheral_ReadRegister(LIS3DH_DEVICE_ADDRESS,
 191              		.loc 1 166 0
 192 00e4 03AB     		add	r3, sp, #12
 193 00e6 5A19     		adds	r2, r3, r5
 194 00e8 2821     		movs	r1, #40
 195 00ea 1820     		movs	r0, #24
 196 00ec FFF7FEFF 		bl	I2C_Peripheral_ReadRegister
 197              	.LVL28:
 167:main.c        ****                                                         LIS3DH_OUT_X_L,
 168:main.c        ****                                                         &lis_data[0+i]);
 169:main.c        ****                    
 170:main.c        ****                     
 171:main.c        **** 
 172:main.c        ****                 //Controllo quanti valori mancanti da leggere dalla FIFO
 173:main.c        ****                     error = I2C_Peripheral_ReadRegister(LIS3DH_DEVICE_ADDRESS,
 198              		.loc 1 173 0
 199 00f0 0DF10A02 		add	r2, sp, #10
 200 00f4 2F21     		movs	r1, #47
 201 00f6 1820     		movs	r0, #24
 202 00f8 FFF7FEFF 		bl	I2C_Peripheral_ReadRegister
 203              	.LVL29:
 174:main.c        ****                                         LIS3DH_FIFO_SRC_REG,
 175:main.c        ****                                         &remain);
 176:main.c        ****                     remain=remain&0x1F;
 204              		.loc 1 176 0
 205 00fc 9DF80A20 		ldrb	r2, [sp, #10]	@ zero_extendqisi2
 206 0100 02F01F02 		and	r2, r2, #31
 207 0104 8DF80A20 		strb	r2, [sp, #10]
 177:main.c        ****                     
 178:main.c        ****                         if( error == NO_ERROR ) {
 208              		.loc 1 178 0
 209 0108 30B9     		cbnz	r0, .L9
 179:main.c        ****                             sprintf(message, "Valore mancanti nella FIFO %d\r\n", remain);
 210              		.loc 1 179 0
 211 010a 2B49     		ldr	r1, .L15+24
 212 010c 34A8     		add	r0, sp, #208
 213              	.LVL30:
 214 010e FFF7FEFF 		bl	sprintf
 215              	.LVL31:
 180:main.c        ****                             UART_1_PutString(message);
 216              		.loc 1 180 0
 217 0112 34A8     		add	r0, sp, #208
 218 0114 FFF7FEFF 		bl	UART_1_PutString
 219              	.LVL32:
ARM GAS  C:\Users\Martina\AppData\Local\Temp\ccJc4yJc.s 			page 8


 220              	.L9:
 181:main.c        ****                             }
 182:main.c        ****                         i++;
 221              		.loc 1 182 0
 222 0118 0135     		adds	r5, r5, #1
 223              	.LVL33:
 224 011a EDB2     		uxtb	r5, r5
 225              	.LVL34:
 183:main.c        ****                         
 184:main.c        ****                         
 185:main.c        ****                         
 186:main.c        ****                     
 187:main.c        ****                     error = I2C_Peripheral_ReadRegister(LIS3DH_DEVICE_ADDRESS,
 226              		.loc 1 187 0
 227 011c 0DF10902 		add	r2, sp, #9
 228 0120 2F21     		movs	r1, #47
 229 0122 1820     		movs	r0, #24
 230 0124 FFF7FEFF 		bl	I2C_Peripheral_ReadRegister
 231              	.LVL35:
 232              	.L8:
 155:main.c        ****                 {
 233              		.loc 1 155 0
 234 0128 9DF80930 		ldrb	r3, [sp, #9]	@ zero_extendqisi2
 235 012c 13F0200F 		tst	r3, #32
 236 0130 D8D0     		beq	.L10
 237              	.L7:
 238              	.LVL36:
 188:main.c        ****                     LIS3DH_FIFO_SRC_REG,
 189:main.c        ****                     &empty);
 190:main.c        ****     
 191:main.c        ****                 }//fine while
 192:main.c        **** 
 193:main.c        ****                 
 194:main.c        ****        
 195:main.c        ****                             
 196:main.c        **** 
 197:main.c        ****                 
 198:main.c        ****             
 199:main.c        ****         }
 200:main.c        ****         /*fine overrun*/
 201:main.c        ****                   //reset fifo: enable bypass mode
 202:main.c        ****                 control_reg =0x00;
 203:main.c        ****                 error = I2C_Peripheral_WriteRegister(LIS3DH_DEVICE_ADDRESS,
 239              		.loc 1 203 0
 240 0132 0022     		movs	r2, #0
 241 0134 2E21     		movs	r1, #46
 242 0136 1820     		movs	r0, #24
 243 0138 FFF7FEFF 		bl	I2C_Peripheral_WriteRegister
 244              	.LVL37:
 204:main.c        ****                                                          LIS3DH_FIFO_CTRL_REG,
 205:main.c        ****                                                          control_reg);
 206:main.c        ****            //enable fifo mode  
 207:main.c        ****                 control_reg =0x40;
 208:main.c        ****                 error = I2C_Peripheral_WriteRegister(LIS3DH_DEVICE_ADDRESS,
 245              		.loc 1 208 0
 246 013c 4022     		movs	r2, #64
 247 013e 2E21     		movs	r1, #46
ARM GAS  C:\Users\Martina\AppData\Local\Temp\ccJc4yJc.s 			page 9


 248 0140 1820     		movs	r0, #24
 249 0142 FFF7FEFF 		bl	I2C_Peripheral_WriteRegister
 250              	.LVL38:
 209:main.c        ****                                                  LIS3DH_FIFO_CTRL_REG,
 210:main.c        ****                                                  control_reg);
 211:main.c        ****                 sprintf(message, "\r\nVALORI ACCELERAZIONE\r\n");
 251              		.loc 1 211 0
 252 0146 34AC     		add	r4, sp, #208
 253 0148 1C4E     		ldr	r6, .L15+28
 254 014a 0FCE     		ldmia	r6!, {r0, r1, r2, r3}
 255 014c 0FC4     		stmia	r4!, {r0, r1, r2, r3}
 256 014e 96E80700 		ldmia	r6, {r0, r1, r2}
 257 0152 03C4     		stmia	r4!, {r0, r1}
 258 0154 2270     		strb	r2, [r4]
 212:main.c        ****                 UART_1_PutString(message);
 259              		.loc 1 212 0
 260 0156 34A8     		add	r0, sp, #208
 261 0158 FFF7FEFF 		bl	UART_1_PutString
 262              	.LVL39:
 263              	.LBB2:
 213:main.c        **** 
 214:main.c        ****             for(int i=0; i<192; i++)
 264              		.loc 1 214 0
 265 015c 0021     		movs	r1, #0
 266 015e 19E0     		b	.L11
 267              	.LVL40:
 268              	.L12:
 215:main.c        ****                 {
 216:main.c        ****                 sprintf(message, "\r\nx: %.3d, y: %.3d, z: %.3d\r\n", lis_data[i],
 269              		.loc 1 216 0 discriminator 3
 270 0160 3CAB     		add	r3, sp, #240
 271 0162 0B44     		add	r3, r3, r1
 272 0164 13F8E42C 		ldrb	r2, [r3, #-228]	@ zero_extendqisi2
 217:main.c        ****                  lis_data[i+1],
 273              		.loc 1 217 0 discriminator 3
 274 0168 4C1C     		adds	r4, r1, #1
 275 016a 3CAB     		add	r3, sp, #240
 276 016c 2344     		add	r3, r3, r4
 277 016e 13F8E43C 		ldrb	r3, [r3, #-228]	@ zero_extendqisi2
 218:main.c        ****                  lis_data[i+2]);
 278              		.loc 1 218 0 discriminator 3
 279 0172 0231     		adds	r1, r1, #2
 280              	.LVL41:
 281 0174 3CA8     		add	r0, sp, #240
 282 0176 0144     		add	r1, r1, r0
 283              	.LVL42:
 284 0178 11F8E41C 		ldrb	r1, [r1, #-228]	@ zero_extendqisi2
 216:main.c        ****                  lis_data[i+1],
 285              		.loc 1 216 0 discriminator 3
 286 017c 0091     		str	r1, [sp]
 287 017e 1049     		ldr	r1, .L15+32
 288 0180 34A8     		add	r0, sp, #208
 289 0182 FFF7FEFF 		bl	sprintf
 290              	.LVL43:
 219:main.c        ****                 UART_1_PutString(message);
 291              		.loc 1 219 0 discriminator 3
 292 0186 34A8     		add	r0, sp, #208
ARM GAS  C:\Users\Martina\AppData\Local\Temp\ccJc4yJc.s 			page 10


 293 0188 FFF7FEFF 		bl	UART_1_PutString
 294              	.LVL44:
 220:main.c        ****                 CyDelay(200);
 295              		.loc 1 220 0 discriminator 3
 296 018c C820     		movs	r0, #200
 297 018e FFF7FEFF 		bl	CyDelay
 298              	.LVL45:
 214:main.c        ****                 {
 299              		.loc 1 214 0 discriminator 3
 300 0192 2146     		mov	r1, r4
 301              	.LVL46:
 302              	.L11:
 214:main.c        ****                 {
 303              		.loc 1 214 0 is_stmt 0 discriminator 1
 304 0194 BF29     		cmp	r1, #191
 305 0196 E3DD     		ble	.L12
 306              	.LBE2:
 221:main.c        **** 
 222:main.c        ****                  }
 223:main.c        ****             
 224:main.c        ****             
 225:main.c        ****             
 226:main.c        ****             
 227:main.c        ****             
 228:main.c        **** //    
 229:main.c        **** //    error = I2C_Peripheral_ReadRegister(LIS3DH_DEVICE_ADDRESS,
 230:main.c        **** //                                        LIS3DH_STATUS_REG,
 231:main.c        **** //                                        &address);
 232:main.c        **** //    if (error == NO_ERROR)
 233:main.c        **** //        {
 234:main.c        **** //            sprintf(message, "\r\nStatus register 0x%02X\r\n", address);
 235:main.c        **** //            UART_1_PutString(message);
 236:main.c        **** //        }
 237:main.c        ****         
 238:main.c        **** 
 239:main.c        ****        CyDelay(100);
 307              		.loc 1 239 0 is_stmt 1
 308 0198 6420     		movs	r0, #100
 309 019a FFF7FEFF 		bl	CyDelay
 310              	.LVL47:
 240:main.c        ****         }
 311              		.loc 1 240 0
 312 019e 87E7     		b	.L13
 313              	.L16:
 314              		.align	2
 315              	.L15:
 316 01a0 00000000 		.word	.LC0
 317 01a4 14000000 		.word	.LC1
 318 01a8 50000000 		.word	.LC2
 319 01ac 8C000000 		.word	.LC3
 320 01b0 C0000000 		.word	.LC4
 321 01b4 DC000000 		.word	.LC5
 322 01b8 EC000000 		.word	.LC6
 323 01bc 0C010000 		.word	.LC7
 324 01c0 28010000 		.word	.LC8
 325              		.cfi_endproc
 326              	.LFE64:
ARM GAS  C:\Users\Martina\AppData\Local\Temp\ccJc4yJc.s 			page 11


 327              		.size	main, .-main
 328              		.section	.rodata.str1.4,"aMS",%progbits,1
 329              		.align	2
 330              	.LC0:
 331 0000 4649464F 		.ascii	"FIFO_MODE enabled\015\012\000"
 331      5F4D4F44 
 331      4520656E 
 331      61626C65 
 331      640D0A00 
 332              	.LC1:
 333 0014 0D0A4572 		.ascii	"\015\012Error occured during I2C comm to set contro"
 333      726F7220 
 333      6F636375 
 333      72656420 
 333      64757269 
 334 0041 6C207265 		.ascii	"l register 1\015\012\000"
 334      67697374 
 334      65722031 
 334      0D0A00
 335              	.LC2:
 336 0050 4354524C 		.ascii	"CTRL_REG5 register value: 0x%02X [Expected value: 0"
 336      5F524547 
 336      35207265 
 336      67697374 
 336      65722076 
 337 0083 78253032 		.ascii	"x%02X]\015\012\000"
 337      585D0D0A 
 337      00
 338              	.LC3:
 339 008c 49324320 		.ascii	"I2C error while reading LIS3DH_WHO_AM_I_REG_ADDR\015"
 339      6572726F 
 339      72207768 
 339      696C6520 
 339      72656164 
 340 00bd 0A00     		.ascii	"\012\000"
 341 00bf 00       		.space	1
 342              	.LC4:
 343 00c0 56616C6F 		.ascii	"Valore CTRL_REG1 0x%02X\015\012\000"
 343      72652043 
 343      54524C5F 
 343      52454731 
 343      20307825 
 344 00da 0000     		.space	2
 345              	.LC5:
 346 00dc 4649464F 		.ascii	"FIFO overrun\000"
 346      206F7665 
 346      7272756E 
 346      00
 347 00e9 000000   		.space	3
 348              	.LC6:
 349 00ec 56616C6F 		.ascii	"Valore mancanti nella FIFO %d\015\012\000"
 349      7265206D 
 349      616E6361 
 349      6E746920 
 349      6E656C6C 
 350              	.LC7:
 351 010c 0D0A5641 		.ascii	"\015\012VALORI ACCELERAZIONE\015\012\000"
ARM GAS  C:\Users\Martina\AppData\Local\Temp\ccJc4yJc.s 			page 12


 351      4C4F5249 
 351      20414343 
 351      454C4552 
 351      415A494F 
 352 0125 000000   		.space	3
 353              	.LC8:
 354 0128 0D0A783A 		.ascii	"\015\012x: %.3d, y: %.3d, z: %.3d\015\012\000"
 354      20252E33 
 354      642C2079 
 354      3A20252E 
 354      33642C20 
 355              		.text
 356              	.Letext0:
 357              		.file 2 "c:\\program files (x86)\\cypress\\psoc creator\\4.4\\psoc creator\\import\\gnu\\arm\\5.4.
 358              		.file 3 "c:\\program files (x86)\\cypress\\psoc creator\\4.4\\psoc creator\\import\\gnu\\arm\\5.4.
 359              		.file 4 "../src_shared/ErrorCodes.h"
 360              		.file 5 "c:\\program files (x86)\\cypress\\psoc creator\\4.4\\psoc creator\\import\\gnu\\arm\\5.4.
 361              		.file 6 "Generated_Source\\PSoC5/UART_1.h"
 362              		.file 7 "Generated_Source\\PSoC5/CyLib.h"
 363              		.file 8 "../src_shared/I2C_Interface.h"
 364              		.file 9 "Generated_Source\\PSoC5/core_cm3.h"