ARM GAS  C:\Users\Gaia Di Federico\AppData\Local\Temp\ccCqbcrZ.s 			page 1


   1              		.syntax unified
   2              		.cpu cortex-m3
   3              		.fpu softvfp
   4              		.eabi_attribute 20, 1
   5              		.eabi_attribute 21, 1
   6              		.eabi_attribute 23, 3
   7              		.eabi_attribute 24, 1
   8              		.eabi_attribute 25, 1
   9              		.eabi_attribute 26, 1
  10              		.eabi_attribute 30, 1
  11              		.eabi_attribute 34, 1
  12              		.eabi_attribute 18, 4
  13              		.thumb
  14              		.syntax unified
  15              		.file	"I2C_Interface.c"
  16              		.text
  17              	.Ltext0:
  18              		.cfi_sections	.debug_frame
  19              		.section	.text.I2C_Peripheral_Start,"ax",%progbits
  20              		.align	2
  21              		.global	I2C_Peripheral_Start
  22              		.thumb
  23              		.thumb_func
  24              		.type	I2C_Peripheral_Start, %function
  25              	I2C_Peripheral_Start:
  26              	.LFB0:
  27              		.file 1 "..\\src_shared\\I2C_Interface.c"
   1:..\src_shared/I2C_Interface.c **** /*
   2:..\src_shared/I2C_Interface.c **** * This file includes all the required source code to interface
   3:..\src_shared/I2C_Interface.c **** * the I2C peripheral.
   4:..\src_shared/I2C_Interface.c **** *
   5:..\src_shared/I2C_Interface.c **** * This file needs to be completed.
   6:..\src_shared/I2C_Interface.c **** */
   7:..\src_shared/I2C_Interface.c **** 
   8:..\src_shared/I2C_Interface.c **** /**
   9:..\src_shared/I2C_Interface.c **** *   \brief Value returned if device present on I2C bus.
  10:..\src_shared/I2C_Interface.c **** */
  11:..\src_shared/I2C_Interface.c **** #ifndef DEVICE_CONNECTED
  12:..\src_shared/I2C_Interface.c ****     #define DEVICE_CONNECTED 1
  13:..\src_shared/I2C_Interface.c **** #endif
  14:..\src_shared/I2C_Interface.c **** 
  15:..\src_shared/I2C_Interface.c **** /**
  16:..\src_shared/I2C_Interface.c **** *   \brief Value returned if device not present on I2C bus.
  17:..\src_shared/I2C_Interface.c **** */
  18:..\src_shared/I2C_Interface.c **** #ifndef DEVICE_UNCONNECTED
  19:..\src_shared/I2C_Interface.c ****     #define DEVICE_UNCONNECTED 0
  20:..\src_shared/I2C_Interface.c **** #endif
  21:..\src_shared/I2C_Interface.c **** 
  22:..\src_shared/I2C_Interface.c **** #include "I2C_Interface.h" 
  23:..\src_shared/I2C_Interface.c **** #include "I2C_Master.h"
  24:..\src_shared/I2C_Interface.c **** 
  25:..\src_shared/I2C_Interface.c **** ErrorCode I2C_Peripheral_Start(void) 
  26:..\src_shared/I2C_Interface.c **** {
  28              		.loc 1 26 0
  29              		.cfi_startproc
  30              		@ args = 0, pretend = 0, frame = 0
  31              		@ frame_needed = 0, uses_anonymous_args = 0
ARM GAS  C:\Users\Gaia Di Federico\AppData\Local\Temp\ccCqbcrZ.s 			page 2


  32 0000 08B5     		push	{r3, lr}
  33              		.cfi_def_cfa_offset 8
  34              		.cfi_offset 3, -8
  35              		.cfi_offset 14, -4
  27:..\src_shared/I2C_Interface.c ****     // Start I2C peripheral
  28:..\src_shared/I2C_Interface.c ****     I2C_Master_Start();  
  36              		.loc 1 28 0
  37 0002 FFF7FEFF 		bl	I2C_Master_Start
  38              	.LVL0:
  29:..\src_shared/I2C_Interface.c ****     
  30:..\src_shared/I2C_Interface.c ****     // Return no error since start function does not return any error
  31:..\src_shared/I2C_Interface.c ****     return NO_ERROR;
  32:..\src_shared/I2C_Interface.c **** }
  39              		.loc 1 32 0
  40 0006 0020     		movs	r0, #0
  41 0008 08BD     		pop	{r3, pc}
  42              		.cfi_endproc
  43              	.LFE0:
  44              		.size	I2C_Peripheral_Start, .-I2C_Peripheral_Start
  45 000a 00BF     		.section	.text.I2C_Peripheral_Stop,"ax",%progbits
  46              		.align	2
  47              		.global	I2C_Peripheral_Stop
  48              		.thumb
  49              		.thumb_func
  50              		.type	I2C_Peripheral_Stop, %function
  51              	I2C_Peripheral_Stop:
  52              	.LFB1:
  33:..\src_shared/I2C_Interface.c **** 
  34:..\src_shared/I2C_Interface.c **** // --------------------------------------------------------------------------------- //
  35:..\src_shared/I2C_Interface.c **** 
  36:..\src_shared/I2C_Interface.c **** ErrorCode I2C_Peripheral_Stop(void)
  37:..\src_shared/I2C_Interface.c **** {
  53              		.loc 1 37 0
  54              		.cfi_startproc
  55              		@ args = 0, pretend = 0, frame = 0
  56              		@ frame_needed = 0, uses_anonymous_args = 0
  57 0000 08B5     		push	{r3, lr}
  58              		.cfi_def_cfa_offset 8
  59              		.cfi_offset 3, -8
  60              		.cfi_offset 14, -4
  38:..\src_shared/I2C_Interface.c ****     // Stop I2C peripheral
  39:..\src_shared/I2C_Interface.c ****     I2C_Master_Stop();
  61              		.loc 1 39 0
  62 0002 FFF7FEFF 		bl	I2C_Master_Stop
  63              	.LVL1:
  40:..\src_shared/I2C_Interface.c ****     // Return no error since stop function does not return any error
  41:..\src_shared/I2C_Interface.c ****     return NO_ERROR;
  42:..\src_shared/I2C_Interface.c **** }
  64              		.loc 1 42 0
  65 0006 0020     		movs	r0, #0
  66 0008 08BD     		pop	{r3, pc}
  67              		.cfi_endproc
  68              	.LFE1:
  69              		.size	I2C_Peripheral_Stop, .-I2C_Peripheral_Stop
  70 000a 00BF     		.section	.text.I2C_Peripheral_ReadRegister,"ax",%progbits
  71              		.align	2
  72              		.global	I2C_Peripheral_ReadRegister
ARM GAS  C:\Users\Gaia Di Federico\AppData\Local\Temp\ccCqbcrZ.s 			page 3


  73              		.thumb
  74              		.thumb_func
  75              		.type	I2C_Peripheral_ReadRegister, %function
  76              	I2C_Peripheral_ReadRegister:
  77              	.LFB2:
  43:..\src_shared/I2C_Interface.c **** 
  44:..\src_shared/I2C_Interface.c **** // --------------------------------------------------------------------------------- //
  45:..\src_shared/I2C_Interface.c **** //ErrorCode può assumere solo due valori error/no_error
  46:..\src_shared/I2C_Interface.c **** ErrorCode I2C_Peripheral_ReadRegister(uint8_t device_address, 
  47:..\src_shared/I2C_Interface.c ****                                       uint8_t register_address,
  48:..\src_shared/I2C_Interface.c ****                                       uint8_t* data) {
  78              		.loc 1 48 0
  79              		.cfi_startproc
  80              		@ args = 0, pretend = 0, frame = 0
  81              		@ frame_needed = 0, uses_anonymous_args = 0
  82              	.LVL2:
  83 0000 F8B5     		push	{r3, r4, r5, r6, r7, lr}
  84              		.cfi_def_cfa_offset 24
  85              		.cfi_offset 3, -24
  86              		.cfi_offset 4, -20
  87              		.cfi_offset 5, -16
  88              		.cfi_offset 6, -12
  89              		.cfi_offset 7, -8
  90              		.cfi_offset 14, -4
  91 0002 0646     		mov	r6, r0
  92 0004 0D46     		mov	r5, r1
  93 0006 1746     		mov	r7, r2
  49:..\src_shared/I2C_Interface.c ****     
  50:..\src_shared/I2C_Interface.c ****     // Start Condition
  51:..\src_shared/I2C_Interface.c ****     uint8_t error = I2C_Master_MasterSendStart(device_address, I2C_Master_WRITE_XFER_MODE);        
  94              		.loc 1 51 0
  95 0008 0021     		movs	r1, #0
  96              	.LVL3:
  97 000a FFF7FEFF 		bl	I2C_Master_MasterSendStart
  98              	.LVL4:
  52:..\src_shared/I2C_Interface.c ****     if (error == I2C_Master_MSTR_NO_ERROR)
  99              		.loc 1 52 0
 100 000e 0446     		mov	r4, r0
 101 0010 68B9     		cbnz	r0, .L6
  53:..\src_shared/I2C_Interface.c ****     {
  54:..\src_shared/I2C_Interface.c ****         //Write the register address to be read
  55:..\src_shared/I2C_Interface.c ****         error = I2C_Master_MasterWriteByte(register_address);
 102              		.loc 1 55 0
 103 0012 2846     		mov	r0, r5
 104              	.LVL5:
 105 0014 FFF7FEFF 		bl	I2C_Master_MasterWriteByte
 106              	.LVL6:
  56:..\src_shared/I2C_Interface.c ****         if (error == I2C_Master_MSTR_NO_ERROR)
 107              		.loc 1 56 0
 108 0018 0446     		mov	r4, r0
 109 001a 40B9     		cbnz	r0, .L6
  57:..\src_shared/I2C_Interface.c ****         {
  58:..\src_shared/I2C_Interface.c ****             // Send a restart condition
  59:..\src_shared/I2C_Interface.c ****             error = I2C_Master_MasterSendRestart(device_address, I2C_Master_READ_XFER_MODE);
 110              		.loc 1 59 0
 111 001c 0121     		movs	r1, #1
 112 001e 3046     		mov	r0, r6
ARM GAS  C:\Users\Gaia Di Federico\AppData\Local\Temp\ccCqbcrZ.s 			page 4


 113              	.LVL7:
 114 0020 FFF7FEFF 		bl	I2C_Master_MasterSendRestart
 115              	.LVL8:
  60:..\src_shared/I2C_Interface.c ****             if (error == I2C_Master_MSTR_NO_ERROR)
 116              		.loc 1 60 0
 117 0024 0446     		mov	r4, r0
 118 0026 10B9     		cbnz	r0, .L6
  61:..\src_shared/I2C_Interface.c ****             {
  62:..\src_shared/I2C_Interface.c ****                 *data = I2C_Master_MasterReadByte(I2C_Master_NAK_DATA);
 119              		.loc 1 62 0
 120 0028 FFF7FEFF 		bl	I2C_Master_MasterReadByte
 121              	.LVL9:
 122 002c 3870     		strb	r0, [r7]
 123              	.L6:
 124              	.LVL10:
  63:..\src_shared/I2C_Interface.c ****             }
  64:..\src_shared/I2C_Interface.c ****         }
  65:..\src_shared/I2C_Interface.c ****     }
  66:..\src_shared/I2C_Interface.c ****     // Stop Comunication
  67:..\src_shared/I2C_Interface.c ****     I2C_Master_MasterSendStop();
 125              		.loc 1 67 0
 126 002e FFF7FEFF 		bl	I2C_Master_MasterSendStop
 127              	.LVL11:
  68:..\src_shared/I2C_Interface.c ****     //Return
  69:..\src_shared/I2C_Interface.c ****     //interrogata la variabile error
  70:..\src_shared/I2C_Interface.c ****     return error ? ERROR : NO_ERROR;
  71:..\src_shared/I2C_Interface.c ****     
  72:..\src_shared/I2C_Interface.c **** }
 128              		.loc 1 72 0
 129 0032 201C     		adds	r0, r4, #0
 130 0034 18BF     		it	ne
 131 0036 0120     		movne	r0, #1
 132 0038 F8BD     		pop	{r3, r4, r5, r6, r7, pc}
 133              		.cfi_endproc
 134              	.LFE2:
 135              		.size	I2C_Peripheral_ReadRegister, .-I2C_Peripheral_ReadRegister
 136 003a 00BF     		.section	.text.I2C_Peripheral_ReadRegisterMulti,"ax",%progbits
 137              		.align	2
 138              		.global	I2C_Peripheral_ReadRegisterMulti
 139              		.thumb
 140              		.thumb_func
 141              		.type	I2C_Peripheral_ReadRegisterMulti, %function
 142              	I2C_Peripheral_ReadRegisterMulti:
 143              	.LFB3:
  73:..\src_shared/I2C_Interface.c ****                                     
  74:..\src_shared/I2C_Interface.c **** // --------------------------------------------------------------------------------- //
  75:..\src_shared/I2C_Interface.c **** 
  76:..\src_shared/I2C_Interface.c **** ErrorCode I2C_Peripheral_ReadRegisterMulti(uint8_t device_address,
  77:..\src_shared/I2C_Interface.c ****                                            uint8_t register_address,
  78:..\src_shared/I2C_Interface.c ****                                            uint8_t register_count,
  79:..\src_shared/I2C_Interface.c ****                                            uint8_t* data) {
 144              		.loc 1 79 0
 145              		.cfi_startproc
 146              		@ args = 0, pretend = 0, frame = 0
 147              		@ frame_needed = 0, uses_anonymous_args = 0
 148              	.LVL12:
 149 0000 2DE9F041 		push	{r4, r5, r6, r7, r8, lr}
ARM GAS  C:\Users\Gaia Di Federico\AppData\Local\Temp\ccCqbcrZ.s 			page 5


 150              		.cfi_def_cfa_offset 24
 151              		.cfi_offset 4, -24
 152              		.cfi_offset 5, -20
 153              		.cfi_offset 6, -16
 154              		.cfi_offset 7, -12
 155              		.cfi_offset 8, -8
 156              		.cfi_offset 14, -4
 157 0004 8046     		mov	r8, r0
 158 0006 0C46     		mov	r4, r1
 159 0008 1646     		mov	r6, r2
 160 000a 1F46     		mov	r7, r3
  80:..\src_shared/I2C_Interface.c ****     
  81:..\src_shared/I2C_Interface.c ****     // Send start condition
  82:..\src_shared/I2C_Interface.c ****     uint8_t error = I2C_Master_MasterSendStart(device_address, I2C_Master_WRITE_XFER_MODE);
 161              		.loc 1 82 0
 162 000c 0021     		movs	r1, #0
 163              	.LVL13:
 164 000e FFF7FEFF 		bl	I2C_Master_MasterSendStart
 165              	.LVL14:
  83:..\src_shared/I2C_Interface.c ****     if (error == I2C_Master_MSTR_NO_ERROR)
 166              		.loc 1 83 0
 167 0012 0546     		mov	r5, r0
 168 0014 F0B9     		cbnz	r0, .L9
 169              	.LVL15:
  84:..\src_shared/I2C_Interface.c ****     {
  85:..\src_shared/I2C_Interface.c ****         // Write register address to be read with the MSB = 1
  86:..\src_shared/I2C_Interface.c ****         register_address |= 0x80; //Datasheet indication for multi read -- autoincrement
  87:..\src_shared/I2C_Interface.c ****         error = I2C_Master_MasterWriteByte(register_address);
 170              		.loc 1 87 0
 171 0016 44F08000 		orr	r0, r4, #128
 172              	.LVL16:
 173 001a FFF7FEFF 		bl	I2C_Master_MasterWriteByte
 174              	.LVL17:
  88:..\src_shared/I2C_Interface.c ****         if (error == I2C_Master_MSTR_NO_ERROR)
 175              		.loc 1 88 0
 176 001e 0546     		mov	r5, r0
 177 0020 C0B9     		cbnz	r0, .L9
  89:..\src_shared/I2C_Interface.c ****         {
  90:..\src_shared/I2C_Interface.c ****             // Send Restart condition
  91:..\src_shared/I2C_Interface.c ****             error = I2C_Master_MasterSendRestart(device_address, I2C_Master_READ_XFER_MODE);
 178              		.loc 1 91 0
 179 0022 0121     		movs	r1, #1
 180 0024 4046     		mov	r0, r8
 181              	.LVL18:
 182 0026 FFF7FEFF 		bl	I2C_Master_MasterSendRestart
 183              	.LVL19:
  92:..\src_shared/I2C_Interface.c ****             if (error == I2C_Master_MSTR_NO_ERROR)
 184              		.loc 1 92 0
 185 002a 0546     		mov	r5, r0
 186 002c 50B1     		cbz	r0, .L12
 187 002e 11E0     		b	.L9
 188              	.LVL20:
 189              	.L11:
 190              	.LBB2:
  93:..\src_shared/I2C_Interface.c ****             {
  94:..\src_shared/I2C_Interface.c ****                 // Continue to read until we have register to be read
  95:..\src_shared/I2C_Interface.c ****                 uint8_t counter = register_count;
ARM GAS  C:\Users\Gaia Di Federico\AppData\Local\Temp\ccCqbcrZ.s 			page 6


  96:..\src_shared/I2C_Interface.c ****                 while (counter > 1)
  97:..\src_shared/I2C_Interface.c ****                 {
  98:..\src_shared/I2C_Interface.c ****                     data[register_count - counter] = 
 191              		.loc 1 98 0
 192 0030 C4EB0608 		rsb	r8, r4, r6
  99:..\src_shared/I2C_Interface.c ****                         I2C_Master_MasterReadByte(I2C_Master_ACK_DATA);
 193              		.loc 1 99 0
 194 0034 0120     		movs	r0, #1
 195 0036 FFF7FEFF 		bl	I2C_Master_MasterReadByte
 196              	.LVL21:
  98:..\src_shared/I2C_Interface.c ****                         I2C_Master_MasterReadByte(I2C_Master_ACK_DATA);
 197              		.loc 1 98 0
 198 003a 07F80800 		strb	r0, [r7, r8]
 100:..\src_shared/I2C_Interface.c ****                         counter --;
 199              		.loc 1 100 0
 200 003e 013C     		subs	r4, r4, #1
 201              	.LVL22:
 202 0040 E4B2     		uxtb	r4, r4
 203              	.LVL23:
 204 0042 00E0     		b	.L10
 205              	.LVL24:
 206              	.L12:
 207              	.LBE2:
 208 0044 3446     		mov	r4, r6
 209              	.LVL25:
 210              	.L10:
 211              	.LBB3:
  96:..\src_shared/I2C_Interface.c ****                 {
 212              		.loc 1 96 0
 213 0046 012C     		cmp	r4, #1
 214 0048 F2D8     		bhi	.L11
 101:..\src_shared/I2C_Interface.c ****                 }
 102:..\src_shared/I2C_Interface.c ****                 // Read last data without acknolowledgment
 103:..\src_shared/I2C_Interface.c ****                 data[register_count - 1] = 
 215              		.loc 1 103 0
 216 004a 013E     		subs	r6, r6, #1
 104:..\src_shared/I2C_Interface.c ****                     I2C_Master_MasterReadByte(I2C_Master_NAK_DATA);
 217              		.loc 1 104 0
 218 004c 0020     		movs	r0, #0
 219 004e FFF7FEFF 		bl	I2C_Master_MasterReadByte
 220              	.LVL26:
 103:..\src_shared/I2C_Interface.c ****                     I2C_Master_MasterReadByte(I2C_Master_NAK_DATA);
 221              		.loc 1 103 0
 222 0052 B855     		strb	r0, [r7, r6]
 223              	.LVL27:
 224              	.L9:
 225              	.LBE3:
 105:..\src_shared/I2C_Interface.c ****             }
 106:..\src_shared/I2C_Interface.c ****         }
 107:..\src_shared/I2C_Interface.c ****     }
 108:..\src_shared/I2C_Interface.c ****     // Send Stop Condition
 109:..\src_shared/I2C_Interface.c ****     I2C_Master_MasterSendStop();
 226              		.loc 1 109 0
 227 0054 FFF7FEFF 		bl	I2C_Master_MasterSendStop
 228              	.LVL28:
 110:..\src_shared/I2C_Interface.c ****     // Return Error Code
 111:..\src_shared/I2C_Interface.c ****     return error ? ERROR : NO_ERROR;
ARM GAS  C:\Users\Gaia Di Federico\AppData\Local\Temp\ccCqbcrZ.s 			page 7


 112:..\src_shared/I2C_Interface.c ****                                               
 113:..\src_shared/I2C_Interface.c **** }
 229              		.loc 1 113 0
 230 0058 281C     		adds	r0, r5, #0
 231 005a 18BF     		it	ne
 232 005c 0120     		movne	r0, #1
 233 005e BDE8F081 		pop	{r4, r5, r6, r7, r8, pc}
 234              		.cfi_endproc
 235              	.LFE3:
 236              		.size	I2C_Peripheral_ReadRegisterMulti, .-I2C_Peripheral_ReadRegisterMulti
 237 0062 00BF     		.section	.text.I2C_Peripheral_WriteRegister,"ax",%progbits
 238              		.align	2
 239              		.global	I2C_Peripheral_WriteRegister
 240              		.thumb
 241              		.thumb_func
 242              		.type	I2C_Peripheral_WriteRegister, %function
 243              	I2C_Peripheral_WriteRegister:
 244              	.LFB4:
 114:..\src_shared/I2C_Interface.c ****                                         
 115:..\src_shared/I2C_Interface.c **** // --------------------------------------------------------------------------------- //
 116:..\src_shared/I2C_Interface.c **** 
 117:..\src_shared/I2C_Interface.c **** ErrorCode I2C_Peripheral_WriteRegister(uint8_t device_address,
 118:..\src_shared/I2C_Interface.c ****                                        uint8_t register_address,
 119:..\src_shared/I2C_Interface.c ****                                        uint8_t data) {
 245              		.loc 1 119 0
 246              		.cfi_startproc
 247              		@ args = 0, pretend = 0, frame = 0
 248              		@ frame_needed = 0, uses_anonymous_args = 0
 249              	.LVL29:
 250 0000 70B5     		push	{r4, r5, r6, lr}
 251              		.cfi_def_cfa_offset 16
 252              		.cfi_offset 4, -16
 253              		.cfi_offset 5, -12
 254              		.cfi_offset 6, -8
 255              		.cfi_offset 14, -4
 256 0002 0D46     		mov	r5, r1
 257 0004 1646     		mov	r6, r2
 120:..\src_shared/I2C_Interface.c ****     
 121:..\src_shared/I2C_Interface.c ****     
 122:..\src_shared/I2C_Interface.c ****     // Send Start Condition
 123:..\src_shared/I2C_Interface.c ****     uint8_t error = I2C_Master_MasterSendStart(device_address, I2C_Master_WRITE_XFER_MODE);
 258              		.loc 1 123 0
 259 0006 0021     		movs	r1, #0
 260              	.LVL30:
 261 0008 FFF7FEFF 		bl	I2C_Master_MasterSendStart
 262              	.LVL31:
 124:..\src_shared/I2C_Interface.c ****     if (error == I2C_Master_MSTR_NO_ERROR)
 263              		.loc 1 124 0
 264 000c 0446     		mov	r4, r0
 265 000e 40B9     		cbnz	r0, .L15
 125:..\src_shared/I2C_Interface.c ****     {
 126:..\src_shared/I2C_Interface.c ****         //Write Register Address (to be overwritten)
 127:..\src_shared/I2C_Interface.c ****         error = I2C_Master_MasterWriteByte(register_address);
 266              		.loc 1 127 0
 267 0010 2846     		mov	r0, r5
 268              	.LVL32:
 269 0012 FFF7FEFF 		bl	I2C_Master_MasterWriteByte
ARM GAS  C:\Users\Gaia Di Federico\AppData\Local\Temp\ccCqbcrZ.s 			page 8


 270              	.LVL33:
 128:..\src_shared/I2C_Interface.c ****         if (error == I2C_Master_MSTR_NO_ERROR)
 271              		.loc 1 128 0
 272 0016 0446     		mov	r4, r0
 273 0018 18B9     		cbnz	r0, .L15
 129:..\src_shared/I2C_Interface.c ****         {
 130:..\src_shared/I2C_Interface.c ****             // Write Byte
 131:..\src_shared/I2C_Interface.c ****             error = I2C_Master_MasterWriteByte(data);
 274              		.loc 1 131 0
 275 001a 3046     		mov	r0, r6
 276              	.LVL34:
 277 001c FFF7FEFF 		bl	I2C_Master_MasterWriteByte
 278              	.LVL35:
 279 0020 0446     		mov	r4, r0
 280              	.LVL36:
 281              	.L15:
 132:..\src_shared/I2C_Interface.c ****         }
 133:..\src_shared/I2C_Interface.c ****     }
 134:..\src_shared/I2C_Interface.c ****     // Close Communication
 135:..\src_shared/I2C_Interface.c ****     I2C_Master_MasterSendStop();
 282              		.loc 1 135 0
 283 0022 FFF7FEFF 		bl	I2C_Master_MasterSendStop
 284              	.LVL37:
 136:..\src_shared/I2C_Interface.c ****     // Return
 137:..\src_shared/I2C_Interface.c ****     return error ? ERROR : NO_ERROR;
 138:..\src_shared/I2C_Interface.c **** }
 285              		.loc 1 138 0
 286 0026 201C     		adds	r0, r4, #0
 287 0028 18BF     		it	ne
 288 002a 0120     		movne	r0, #1
 289 002c 70BD     		pop	{r4, r5, r6, pc}
 290              		.cfi_endproc
 291              	.LFE4:
 292              		.size	I2C_Peripheral_WriteRegister, .-I2C_Peripheral_WriteRegister
 293 002e 00BF     		.section	.text.I2C_Peripheral_IsDeviceConnected,"ax",%progbits
 294              		.align	2
 295              		.global	I2C_Peripheral_IsDeviceConnected
 296              		.thumb
 297              		.thumb_func
 298              		.type	I2C_Peripheral_IsDeviceConnected, %function
 299              	I2C_Peripheral_IsDeviceConnected:
 300              	.LFB5:
 139:..\src_shared/I2C_Interface.c ****                                     
 140:..\src_shared/I2C_Interface.c **** 
 141:..\src_shared/I2C_Interface.c ****                                             
 142:..\src_shared/I2C_Interface.c **** // --------------------------------------------------------------------------------- //
 143:..\src_shared/I2C_Interface.c **** 
 144:..\src_shared/I2C_Interface.c **** uint8_t I2C_Peripheral_IsDeviceConnected(uint8_t device_address) {
 301              		.loc 1 144 0
 302              		.cfi_startproc
 303              		@ args = 0, pretend = 0, frame = 0
 304              		@ frame_needed = 0, uses_anonymous_args = 0
 305              	.LVL38:
 306 0000 10B5     		push	{r4, lr}
 307              		.cfi_def_cfa_offset 8
 308              		.cfi_offset 4, -8
 309              		.cfi_offset 14, -4
ARM GAS  C:\Users\Gaia Di Federico\AppData\Local\Temp\ccCqbcrZ.s 			page 9


 145:..\src_shared/I2C_Interface.c ****     
 146:..\src_shared/I2C_Interface.c ****     // Send a start condition followed by a stop condition
 147:..\src_shared/I2C_Interface.c ****     uint8_t error = I2C_Master_MasterSendStart(device_address, I2C_Master_WRITE_XFER_MODE);
 310              		.loc 1 147 0
 311 0002 0021     		movs	r1, #0
 312 0004 FFF7FEFF 		bl	I2C_Master_MasterSendStart
 313              	.LVL39:
 314 0008 0446     		mov	r4, r0
 315              	.LVL40:
 148:..\src_shared/I2C_Interface.c ****     I2C_Master_MasterSendStop();
 316              		.loc 1 148 0
 317 000a FFF7FEFF 		bl	I2C_Master_MasterSendStop
 318              	.LVL41:
 149:..\src_shared/I2C_Interface.c ****     // If no error generated during stop, device is connected
 150:..\src_shared/I2C_Interface.c ****     return (error == I2C_Master_MSTR_NO_ERROR ? DEVICE_CONNECTED : DEVICE_UNCONNECTED);
 151:..\src_shared/I2C_Interface.c ****     
 152:..\src_shared/I2C_Interface.c **** }
 319              		.loc 1 152 0
 320 000e B4FA84F0 		clz	r0, r4
 321 0012 4009     		lsrs	r0, r0, #5
 322 0014 10BD     		pop	{r4, pc}
 323              		.cfi_endproc
 324              	.LFE5:
 325              		.size	I2C_Peripheral_IsDeviceConnected, .-I2C_Peripheral_IsDeviceConnected
 326 0016 00BF     		.text
 327              	.Letext0:
 328              		.file 2 "c:\\program files (x86)\\cypress\\psoc creator\\4.4\\psoc creator\\import\\gnu\\arm\\5.4.
 329              		.file 3 "c:\\program files (x86)\\cypress\\psoc creator\\4.4\\psoc creator\\import\\gnu\\arm\\5.4.
 330              		.file 4 "..\\src_shared\\ErrorCodes.h"
 331              		.file 5 "Generated_Source\\PSoC5/I2C_Master.h"